target datalayout = "e-m:e-p270:32:32-p271:32:32-p272:64:64-i64:64-i128:128-f80:128-n8:16:32:64-S128"
target triple = "x86_64-pc-linux-gnu"

%struct.func_args = type { i32, ptr, i32, ptr, ptr }

@.str = private unnamed_addr constant [27 x i8] c" Begin Cipher Suite Tests\0A\00", align 1
@.str.1 = private unnamed_addr constant [10 x i8] c"SuiteTest\00", align 1
@cipherSuiteCtx = internal global ptr null, align 8
@.str.2 = private unnamed_addr constant [28 x i8] c"can't get cipher suite ctx\0A\00", align 1
@.str.3 = private unnamed_addr constant [22 x i8] c"error from script %d\0A\00", align 1
@.str.4 = private unnamed_addr constant [37 x i8] c"starting default cipher suite tests\0A\00", align 1
@.str.5 = private unnamed_addr constant [22 x i8] c"tests/test-tls13.conf\00", align 1
@.str.6 = private unnamed_addr constant [42 x i8] c"starting TLSv13 extra cipher suite tests\0A\00", align 1
@.str.7 = private unnamed_addr constant [26 x i8] c"tests/test-tls13-ecc.conf\00", align 1
@.str.8 = private unnamed_addr constant [46 x i8] c"starting TLSv13 ECC extra cipher suite tests\0A\00", align 1
@.str.9 = private unnamed_addr constant [27 x i8] c"tests/test-tls13-down.conf\00", align 1
@.str.10 = private unnamed_addr constant [39 x i8] c"starting TLSv13 Downgrade extra tests\0A\00", align 1
@.str.11 = private unnamed_addr constant [23 x i8] c"tests/test-rsapss.conf\00", align 1
@.str.12 = private unnamed_addr constant [43 x i8] c"starting RSA-PSS extra cipher suite tests\0A\00", align 1
@.str.13 = private unnamed_addr constant [21 x i8] c"tests/test-p521.conf\00", align 1
@.str.14 = private unnamed_addr constant [41 x i8] c"starting P-521 extra cipher suite tests\0A\00", align 1
@.str.15 = private unnamed_addr constant [20 x i8] c"tests/test-sig.conf\00", align 1
@.str.16 = private unnamed_addr constant [39 x i8] c"starting sig extra cipher suite tests\0A\00", align 1
@.str.17 = private unnamed_addr constant [23 x i8] c"tests/test-chains.conf\00", align 1
@.str.18 = private unnamed_addr constant [47 x i8] c"starting certificate chain cipher suite tests\0A\00", align 1
@.str.19 = private unnamed_addr constant [24 x i8] c"tests/test-dhprime.conf\00", align 1
@.str.20 = private unnamed_addr constant [5 x i8] c"doDH\00", align 1
@.str.21 = private unnamed_addr constant [25 x i8] c"starting dh prime tests\0A\00", align 1
@.str.22 = private unnamed_addr constant [22 x i8] c"tests/test-fails.conf\00", align 1
@.str.23 = private unnamed_addr constant [8 x i8] c"expFail\00", align 1
@.str.24 = private unnamed_addr constant [36 x i8] c"starting tests that expect failure\0A\00", align 1
@.str.25 = private unnamed_addr constant [39 x i8] c"\0A Success -- All results as expected.\0A\00", align 1
@.str.26 = private unnamed_addr constant [25 x i8] c" End Cipher Suite Tests\0A\00", align 1

; Function Attrs: nounwind uwtable
define dso_local i32 @SuiteTest(i32 noundef %0, ptr noundef %1) #0 {
  %3 = alloca i32, align 4
  %4 = alloca ptr, align 8
  %5 = alloca %struct.func_args, align 8
  %6 = alloca [3 x [80 x i8]], align 16
  %7 = alloca [3 x ptr], align 16
  store i32 %0, ptr %3, align 4, !tbaa !4
  store ptr %1, ptr %4, align 8, !tbaa !8
  call void @llvm.lifetime.start.p0(i64 40, ptr %5) #13
  call void @llvm.lifetime.start.p0(i64 240, ptr %6) #13
  call void @llvm.lifetime.start.p0(i64 24, ptr %7) #13
  %8 = call i32 (ptr, ...) @printf(ptr noundef @.str)
  %9 = getelementptr inbounds [3 x [80 x i8]], ptr %6, i64 0, i64 0
  %10 = getelementptr inbounds [80 x i8], ptr %9, i64 0, i64 0
  %11 = getelementptr inbounds [3 x ptr], ptr %7, i64 0, i64 0
  store ptr %10, ptr %11, align 16, !tbaa !11
  %12 = getelementptr inbounds [3 x [80 x i8]], ptr %6, i64 0, i64 1
  %13 = getelementptr inbounds [80 x i8], ptr %12, i64 0, i64 0
  %14 = getelementptr inbounds [3 x ptr], ptr %7, i64 0, i64 1
  store ptr %13, ptr %14, align 8, !tbaa !11
  %15 = getelementptr inbounds [3 x [80 x i8]], ptr %6, i64 0, i64 2
  %16 = getelementptr inbounds [80 x i8], ptr %15, i64 0, i64 0
  %17 = getelementptr inbounds [3 x ptr], ptr %7, i64 0, i64 2
  store ptr %16, ptr %17, align 16, !tbaa !11
  %18 = getelementptr inbounds [3 x ptr], ptr %7, i64 0, i64 0
  %19 = getelementptr inbounds nuw %struct.func_args, ptr %5, i32 0, i32 1
  store ptr %18, ptr %19, align 8, !tbaa !13
  %20 = getelementptr inbounds [3 x [80 x i8]], ptr %6, i64 0, i64 0
  %21 = getelementptr inbounds [80 x i8], ptr %20, i64 0, i64 0
  %22 = call i64 @wc_strlcpy(ptr noundef %21, ptr noundef @.str.1, i64 noundef 80)
  %23 = call ptr @wolfSSLv23_client_method()
  %24 = call ptr @wolfSSL_CTX_new(ptr noundef %23)
  store ptr %24, ptr @cipherSuiteCtx, align 8, !tbaa !17
  %25 = load ptr, ptr @cipherSuiteCtx, align 8, !tbaa !17
  %26 = icmp eq ptr %25, null
  br i1 %26, label %27, label %30

27:                                               ; preds = %2
  %28 = call i32 (ptr, ...) @printf(ptr noundef @.str.2)
  %29 = getelementptr inbounds nuw %struct.func_args, ptr %5, i32 0, i32 2
  store i32 1, ptr %29, align 8, !tbaa !19
  br label %185

30:                                               ; preds = %2
  %31 = load i32, ptr %3, align 4, !tbaa !4
  %32 = icmp sgt i32 %31, 1
  br i1 %32, label %33, label %47

33:                                               ; preds = %30
  %34 = load i32, ptr %3, align 4, !tbaa !4
  %35 = getelementptr inbounds nuw %struct.func_args, ptr %5, i32 0, i32 0
  store i32 %34, ptr %35, align 8, !tbaa !20
  %36 = load ptr, ptr %4, align 8, !tbaa !8
  %37 = getelementptr inbounds nuw %struct.func_args, ptr %5, i32 0, i32 1
  store ptr %36, ptr %37, align 8, !tbaa !13
  call void @test_harness(ptr noundef %5)
  %38 = getelementptr inbounds nuw %struct.func_args, ptr %5, i32 0, i32 2
  %39 = load i32, ptr %38, align 8, !tbaa !19
  %40 = icmp ne i32 %39, 0
  br i1 %40, label %41, label %46

41:                                               ; preds = %33
  %42 = getelementptr inbounds nuw %struct.func_args, ptr %5, i32 0, i32 2
  %43 = load i32, ptr %42, align 8, !tbaa !19
  %44 = call i32 (ptr, ...) @printf(ptr noundef @.str.3, i32 noundef %43)
  %45 = getelementptr inbounds nuw %struct.func_args, ptr %5, i32 0, i32 2
  store i32 1, ptr %45, align 8, !tbaa !19
  br label %46

46:                                               ; preds = %41, %33
  br label %185

47:                                               ; preds = %30
  %48 = getelementptr inbounds nuw %struct.func_args, ptr %5, i32 0, i32 0
  store i32 1, ptr %48, align 8, !tbaa !20
  %49 = call i32 (ptr, ...) @printf(ptr noundef @.str.4)
  call void @test_harness(ptr noundef %5)
  %50 = getelementptr inbounds nuw %struct.func_args, ptr %5, i32 0, i32 2
  %51 = load i32, ptr %50, align 8, !tbaa !19
  %52 = icmp ne i32 %51, 0
  br i1 %52, label %53, label %58

53:                                               ; preds = %47
  %54 = getelementptr inbounds nuw %struct.func_args, ptr %5, i32 0, i32 2
  %55 = load i32, ptr %54, align 8, !tbaa !19
  %56 = call i32 (ptr, ...) @printf(ptr noundef @.str.3, i32 noundef %55)
  %57 = getelementptr inbounds nuw %struct.func_args, ptr %5, i32 0, i32 2
  store i32 1, ptr %57, align 8, !tbaa !19
  br label %185

58:                                               ; preds = %47
  %59 = getelementptr inbounds nuw %struct.func_args, ptr %5, i32 0, i32 0
  store i32 2, ptr %59, align 8, !tbaa !20
  %60 = getelementptr inbounds [3 x [80 x i8]], ptr %6, i64 0, i64 1
  %61 = getelementptr inbounds [80 x i8], ptr %60, i64 0, i64 0
  %62 = call i64 @wc_strlcpy(ptr noundef %61, ptr noundef @.str.5, i64 noundef 80)
  %63 = call i32 (ptr, ...) @printf(ptr noundef @.str.6)
  call void @test_harness(ptr noundef %5)
  %64 = getelementptr inbounds nuw %struct.func_args, ptr %5, i32 0, i32 2
  %65 = load i32, ptr %64, align 8, !tbaa !19
  %66 = icmp ne i32 %65, 0
  br i1 %66, label %67, label %72

67:                                               ; preds = %58
  %68 = getelementptr inbounds nuw %struct.func_args, ptr %5, i32 0, i32 2
  %69 = load i32, ptr %68, align 8, !tbaa !19
  %70 = call i32 (ptr, ...) @printf(ptr noundef @.str.3, i32 noundef %69)
  %71 = getelementptr inbounds nuw %struct.func_args, ptr %5, i32 0, i32 2
  store i32 1, ptr %71, align 8, !tbaa !19
  br label %185

72:                                               ; preds = %58
  %73 = getelementptr inbounds [3 x [80 x i8]], ptr %6, i64 0, i64 1
  %74 = getelementptr inbounds [80 x i8], ptr %73, i64 0, i64 0
  %75 = call i64 @wc_strlcpy(ptr noundef %74, ptr noundef @.str.7, i64 noundef 80)
  %76 = call i32 (ptr, ...) @printf(ptr noundef @.str.8)
  call void @test_harness(ptr noundef %5)
  %77 = getelementptr inbounds nuw %struct.func_args, ptr %5, i32 0, i32 2
  %78 = load i32, ptr %77, align 8, !tbaa !19
  %79 = icmp ne i32 %78, 0
  br i1 %79, label %80, label %85

80:                                               ; preds = %72
  %81 = getelementptr inbounds nuw %struct.func_args, ptr %5, i32 0, i32 2
  %82 = load i32, ptr %81, align 8, !tbaa !19
  %83 = call i32 (ptr, ...) @printf(ptr noundef @.str.3, i32 noundef %82)
  %84 = getelementptr inbounds nuw %struct.func_args, ptr %5, i32 0, i32 2
  store i32 1, ptr %84, align 8, !tbaa !19
  br label %185

85:                                               ; preds = %72
  %86 = getelementptr inbounds [3 x [80 x i8]], ptr %6, i64 0, i64 1
  %87 = getelementptr inbounds [80 x i8], ptr %86, i64 0, i64 0
  %88 = call i64 @wc_strlcpy(ptr noundef %87, ptr noundef @.str.9, i64 noundef 80)
  %89 = call i32 (ptr, ...) @printf(ptr noundef @.str.10)
  call void @test_harness(ptr noundef %5)
  %90 = getelementptr inbounds nuw %struct.func_args, ptr %5, i32 0, i32 2
  %91 = load i32, ptr %90, align 8, !tbaa !19
  %92 = icmp ne i32 %91, 0
  br i1 %92, label %93, label %98

93:                                               ; preds = %85
  %94 = getelementptr inbounds nuw %struct.func_args, ptr %5, i32 0, i32 2
  %95 = load i32, ptr %94, align 8, !tbaa !19
  %96 = call i32 (ptr, ...) @printf(ptr noundef @.str.3, i32 noundef %95)
  %97 = getelementptr inbounds nuw %struct.func_args, ptr %5, i32 0, i32 2
  store i32 1, ptr %97, align 8, !tbaa !19
  br label %185

98:                                               ; preds = %85
  %99 = getelementptr inbounds [3 x [80 x i8]], ptr %6, i64 0, i64 1
  %100 = getelementptr inbounds [80 x i8], ptr %99, i64 0, i64 0
  %101 = call i64 @wc_strlcpy(ptr noundef %100, ptr noundef @.str.11, i64 noundef 80)
  %102 = call i32 (ptr, ...) @printf(ptr noundef @.str.12)
  call void @test_harness(ptr noundef %5)
  %103 = getelementptr inbounds nuw %struct.func_args, ptr %5, i32 0, i32 2
  %104 = load i32, ptr %103, align 8, !tbaa !19
  %105 = icmp ne i32 %104, 0
  br i1 %105, label %106, label %111

106:                                              ; preds = %98
  %107 = getelementptr inbounds nuw %struct.func_args, ptr %5, i32 0, i32 2
  %108 = load i32, ptr %107, align 8, !tbaa !19
  %109 = call i32 (ptr, ...) @printf(ptr noundef @.str.3, i32 noundef %108)
  %110 = getelementptr inbounds nuw %struct.func_args, ptr %5, i32 0, i32 2
  store i32 1, ptr %110, align 8, !tbaa !19
  br label %185

111:                                              ; preds = %98
  %112 = getelementptr inbounds [3 x [80 x i8]], ptr %6, i64 0, i64 1
  %113 = getelementptr inbounds [80 x i8], ptr %112, i64 0, i64 0
  %114 = call i64 @wc_strlcpy(ptr noundef %113, ptr noundef @.str.13, i64 noundef 80)
  %115 = call i32 (ptr, ...) @printf(ptr noundef @.str.14)
  call void @test_harness(ptr noundef %5)
  %116 = getelementptr inbounds nuw %struct.func_args, ptr %5, i32 0, i32 2
  %117 = load i32, ptr %116, align 8, !tbaa !19
  %118 = icmp ne i32 %117, 0
  br i1 %118, label %119, label %124

119:                                              ; preds = %111
  %120 = getelementptr inbounds nuw %struct.func_args, ptr %5, i32 0, i32 2
  %121 = load i32, ptr %120, align 8, !tbaa !19
  %122 = call i32 (ptr, ...) @printf(ptr noundef @.str.3, i32 noundef %121)
  %123 = getelementptr inbounds nuw %struct.func_args, ptr %5, i32 0, i32 2
  store i32 1, ptr %123, align 8, !tbaa !19
  br label %185

124:                                              ; preds = %111
  %125 = getelementptr inbounds [3 x [80 x i8]], ptr %6, i64 0, i64 1
  %126 = getelementptr inbounds [80 x i8], ptr %125, i64 0, i64 0
  %127 = call i64 @wc_strlcpy(ptr noundef %126, ptr noundef @.str.15, i64 noundef 80)
  %128 = call i32 (ptr, ...) @printf(ptr noundef @.str.16)
  call void @test_harness(ptr noundef %5)
  %129 = getelementptr inbounds nuw %struct.func_args, ptr %5, i32 0, i32 2
  %130 = load i32, ptr %129, align 8, !tbaa !19
  %131 = icmp ne i32 %130, 0
  br i1 %131, label %132, label %137

132:                                              ; preds = %124
  %133 = getelementptr inbounds nuw %struct.func_args, ptr %5, i32 0, i32 2
  %134 = load i32, ptr %133, align 8, !tbaa !19
  %135 = call i32 (ptr, ...) @printf(ptr noundef @.str.3, i32 noundef %134)
  %136 = getelementptr inbounds nuw %struct.func_args, ptr %5, i32 0, i32 2
  store i32 1, ptr %136, align 8, !tbaa !19
  br label %185

137:                                              ; preds = %124
  %138 = getelementptr inbounds [3 x [80 x i8]], ptr %6, i64 0, i64 1
  %139 = getelementptr inbounds [80 x i8], ptr %138, i64 0, i64 0
  %140 = call i64 @wc_strlcpy(ptr noundef %139, ptr noundef @.str.17, i64 noundef 80)
  %141 = call i32 (ptr, ...) @printf(ptr noundef @.str.18)
  call void @test_harness(ptr noundef %5)
  %142 = getelementptr inbounds nuw %struct.func_args, ptr %5, i32 0, i32 2
  %143 = load i32, ptr %142, align 8, !tbaa !19
  %144 = icmp ne i32 %143, 0
  br i1 %144, label %145, label %150

145:                                              ; preds = %137
  %146 = getelementptr inbounds nuw %struct.func_args, ptr %5, i32 0, i32 2
  %147 = load i32, ptr %146, align 8, !tbaa !19
  %148 = call i32 (ptr, ...) @printf(ptr noundef @.str.3, i32 noundef %147)
  %149 = getelementptr inbounds nuw %struct.func_args, ptr %5, i32 0, i32 2
  store i32 1, ptr %149, align 8, !tbaa !19
  br label %185

150:                                              ; preds = %137
  %151 = getelementptr inbounds nuw %struct.func_args, ptr %5, i32 0, i32 0
  store i32 3, ptr %151, align 8, !tbaa !20
  %152 = getelementptr inbounds [3 x [80 x i8]], ptr %6, i64 0, i64 1
  %153 = getelementptr inbounds [80 x i8], ptr %152, i64 0, i64 0
  %154 = call i64 @wc_strlcpy(ptr noundef %153, ptr noundef @.str.19, i64 noundef 80)
  %155 = getelementptr inbounds [3 x [80 x i8]], ptr %6, i64 0, i64 2
  %156 = getelementptr inbounds [80 x i8], ptr %155, i64 0, i64 0
  %157 = call i64 @wc_strlcpy(ptr noundef %156, ptr noundef @.str.20, i64 noundef 80)
  %158 = call i32 (ptr, ...) @printf(ptr noundef @.str.21)
  call void @test_harness(ptr noundef %5)
  %159 = getelementptr inbounds nuw %struct.func_args, ptr %5, i32 0, i32 2
  %160 = load i32, ptr %159, align 8, !tbaa !19
  %161 = icmp ne i32 %160, 0
  br i1 %161, label %162, label %167

162:                                              ; preds = %150
  %163 = getelementptr inbounds nuw %struct.func_args, ptr %5, i32 0, i32 2
  %164 = load i32, ptr %163, align 8, !tbaa !19
  %165 = call i32 (ptr, ...) @printf(ptr noundef @.str.3, i32 noundef %164)
  %166 = getelementptr inbounds nuw %struct.func_args, ptr %5, i32 0, i32 2
  store i32 1, ptr %166, align 8, !tbaa !19
  br label %185

167:                                              ; preds = %150
  %168 = getelementptr inbounds nuw %struct.func_args, ptr %5, i32 0, i32 0
  store i32 3, ptr %168, align 8, !tbaa !20
  %169 = getelementptr inbounds [3 x [80 x i8]], ptr %6, i64 0, i64 1
  %170 = getelementptr inbounds [80 x i8], ptr %169, i64 0, i64 0
  %171 = call i64 @wc_strlcpy(ptr noundef %170, ptr noundef @.str.22, i64 noundef 80)
  %172 = getelementptr inbounds [3 x [80 x i8]], ptr %6, i64 0, i64 2
  %173 = getelementptr inbounds [80 x i8], ptr %172, i64 0, i64 0
  %174 = call i64 @wc_strlcpy(ptr noundef %173, ptr noundef @.str.23, i64 noundef 80)
  %175 = call i32 (ptr, ...) @printf(ptr noundef @.str.24)
  call void @test_harness(ptr noundef %5)
  %176 = getelementptr inbounds nuw %struct.func_args, ptr %5, i32 0, i32 2
  %177 = load i32, ptr %176, align 8, !tbaa !19
  %178 = icmp ne i32 %177, 0
  br i1 %178, label %179, label %184

179:                                              ; preds = %167
  %180 = getelementptr inbounds nuw %struct.func_args, ptr %5, i32 0, i32 2
  %181 = load i32, ptr %180, align 8, !tbaa !19
  %182 = call i32 (ptr, ...) @printf(ptr noundef @.str.3, i32 noundef %181)
  %183 = getelementptr inbounds nuw %struct.func_args, ptr %5, i32 0, i32 2
  store i32 1, ptr %183, align 8, !tbaa !19
  br label %185

184:                                              ; preds = %167
  br label %185

185:                                              ; preds = %184, %179, %162, %145, %132, %119, %106, %93, %80, %67, %53, %46, %27
  %186 = getelementptr inbounds nuw %struct.func_args, ptr %5, i32 0, i32 2
  %187 = load i32, ptr %186, align 8, !tbaa !19
  %188 = icmp eq i32 %187, 0
  br i1 %188, label %189, label %191

189:                                              ; preds = %185
  %190 = call i32 (ptr, ...) @printf(ptr noundef @.str.25)
  br label %191

191:                                              ; preds = %189, %185
  %192 = call i32 (ptr, ...) @printf(ptr noundef @.str.26)
  %193 = load ptr, ptr @cipherSuiteCtx, align 8, !tbaa !17
  call void @wolfSSL_CTX_free(ptr noundef %193)
  %194 = call i32 @wolfSSL_Cleanup()
  %195 = getelementptr inbounds nuw %struct.func_args, ptr %5, i32 0, i32 2
  %196 = load i32, ptr %195, align 8, !tbaa !19
  call void @llvm.lifetime.end.p0(i64 24, ptr %7) #13
  call void @llvm.lifetime.end.p0(i64 240, ptr %6) #13
  call void @llvm.lifetime.end.p0(i64 40, ptr %5) #13
  ret i32 %196
}