; Function Attrs: nounwind uwtable
define dso_local range(i32 0, 2) i32 @SuiteTest(i32 noundef %0, ptr noundef %1) local_unnamed_addr #0 {
  %3 = alloca %struct.func_args, align 8
  %4 = alloca [3 x [80 x i8]], align 16
  %5 = alloca [3 x ptr], align 16
  call void @llvm.lifetime.start.p0(i64 40, ptr nonnull %3) #16
  call void @llvm.lifetime.start.p0(i64 240, ptr nonnull %4) #16
  call void @llvm.lifetime.start.p0(i64 24, ptr nonnull %5) #16
  %puts = tail call i32 @puts(ptr nonnull dereferenceable(1) @str)
  store ptr %4, ptr %5, align 16, !tbaa !4
  %6 = getelementptr inbounds nuw i8, ptr %4, i64 80
  %7 = getelementptr inbounds nuw i8, ptr %5, i64 8
  store ptr %6, ptr %7, align 8, !tbaa !4
  %8 = getelementptr inbounds nuw i8, ptr %4, i64 160
  %9 = getelementptr inbounds nuw i8, ptr %5, i64 16
  store ptr %8, ptr %9, align 16, !tbaa !4
  %10 = getelementptr inbounds nuw i8, ptr %3, i64 8
  store ptr %5, ptr %10, align 8, !tbaa !9
  %11 = call i64 @wc_strlcpy(ptr noundef nonnull %4, ptr noundef nonnull @.str.1, i64 noundef 80) #16
  %12 = call ptr @wolfSSLv23_client_method() #16
  %13 = call ptr @wolfSSL_CTX_new(ptr noundef %12) #16
  store ptr %13, ptr @cipherSuiteCtx, align 8, !tbaa !15
  %14 = icmp eq ptr %13, null
  br i1 %14, label %15, label %16

15:                                               ; preds = %2
  %puts33 = call i32 @puts(ptr nonnull dereferenceable(1) @str.11)
  br label %.thread

16:                                               ; preds = %2
  %17 = icmp sgt i32 %0, 1
  %18 = getelementptr inbounds nuw i8, ptr %3, i64 16
  br i1 %17, label %19, label %23

19:                                               ; preds = %16
  store i32 %0, ptr %3, align 8, !tbaa !17
  store ptr %1, ptr %10, align 8, !tbaa !9
  call fastcc void @test_harness(ptr noundef %3)
  %20 = load i32, ptr %18, align 8, !tbaa !18
  %.not32 = icmp eq i32 %20, 0
  br i1 %.not32, label %74, label %21

21:                                               ; preds = %19
  %22 = call i32 (ptr, ...) @printf(ptr noundef nonnull dereferenceable(1) @.str.3, i32 noundef %20)
  br label %.thread

23:                                               ; preds = %16
  store i32 1, ptr %3, align 8, !tbaa !17
  %puts13 = call i32 @puts(ptr nonnull dereferenceable(1) @str.1)
  call fastcc void @test_harness(ptr noundef %3)
  %24 = load i32, ptr %18, align 8, !tbaa !18
  %.not = icmp eq i32 %24, 0
  br i1 %.not, label %27, label %25

25:                                               ; preds = %23
  %26 = call i32 (ptr, ...) @printf(ptr noundef nonnull dereferenceable(1) @.str.3, i32 noundef %24)
  br label %.thread

27:                                               ; preds = %23
  store i32 2, ptr %3, align 8, !tbaa !17
  %28 = call i64 @wc_strlcpy(ptr noundef nonnull %6, ptr noundef nonnull @.str.5, i64 noundef 80) #16
  %puts14 = call i32 @puts(ptr nonnull dereferenceable(1) @str.2)
  call fastcc void @test_harness(ptr noundef %3)
  %29 = load i32, ptr %18, align 8, !tbaa !18
  %.not15 = icmp eq i32 %29, 0
  br i1 %.not15, label %32, label %30

30:                                               ; preds = %27
  %31 = call i32 (ptr, ...) @printf(ptr noundef nonnull dereferenceable(1) @.str.3, i32 noundef %29)
  br label %.thread

32:                                               ; preds = %27
  %33 = call i64 @wc_strlcpy(ptr noundef nonnull %6, ptr noundef nonnull @.str.7, i64 noundef 80) #16
  %puts16 = call i32 @puts(ptr nonnull dereferenceable(1) @str.3)
  call fastcc void @test_harness(ptr noundef %3)
  %34 = load i32, ptr %18, align 8, !tbaa !18
  %.not17 = icmp eq i32 %34, 0
  br i1 %.not17, label %37, label %35

35:                                               ; preds = %32
  %36 = call i32 (ptr, ...) @printf(ptr noundef nonnull dereferenceable(1) @.str.3, i32 noundef %34)
  br label %.thread

37:                                               ; preds = %32
  %38 = call i64 @wc_strlcpy(ptr noundef nonnull %6, ptr noundef nonnull @.str.9, i64 noundef 80) #16
  %puts18 = call i32 @puts(ptr nonnull dereferenceable(1) @str.4)
  call fastcc void @test_harness(ptr noundef %3)
  %39 = load i32, ptr %18, align 8, !tbaa !18
  %.not19 = icmp eq i32 %39, 0
  br i1 %.not19, label %42, label %40

40:                                               ; preds = %37
  %41 = call i32 (ptr, ...) @printf(ptr noundef nonnull dereferenceable(1) @.str.3, i32 noundef %39)
  br label %.thread

42:                                               ; preds = %37
  %43 = call i64 @wc_strlcpy(ptr noundef nonnull %6, ptr noundef nonnull @.str.11, i64 noundef 80) #16
  %puts20 = call i32 @puts(ptr nonnull dereferenceable(1) @str.5)
  call fastcc void @test_harness(ptr noundef %3)
  %44 = load i32, ptr %18, align 8, !tbaa !18
  %.not21 = icmp eq i32 %44, 0
  br i1 %.not21, label %47, label %45

45:                                               ; preds = %42
  %46 = call i32 (ptr, ...) @printf(ptr noundef nonnull dereferenceable(1) @.str.3, i32 noundef %44)
  br label %.thread

47:                                               ; preds = %42
  %48 = call i64 @wc_strlcpy(ptr noundef nonnull %6, ptr noundef nonnull @.str.13, i64 noundef 80) #16
  %puts22 = call i32 @puts(ptr nonnull dereferenceable(1) @str.6)
  call fastcc void @test_harness(ptr noundef %3)
  %49 = load i32, ptr %18, align 8, !tbaa !18
  %.not23 = icmp eq i32 %49, 0
  br i1 %.not23, label %52, label %50

50:                                               ; preds = %47
  %51 = call i32 (ptr, ...) @printf(ptr noundef nonnull dereferenceable(1) @.str.3, i32 noundef %49)
  br label %.thread

52:                                               ; preds = %47
  %53 = call i64 @wc_strlcpy(ptr noundef nonnull %6, ptr noundef nonnull @.str.15, i64 noundef 80) #16
  %puts24 = call i32 @puts(ptr nonnull dereferenceable(1) @str.7)
  call fastcc void @test_harness(ptr noundef %3)
  %54 = load i32, ptr %18, align 8, !tbaa !18
  %.not25 = icmp eq i32 %54, 0
  br i1 %.not25, label %57, label %55

55:                                               ; preds = %52
  %56 = call i32 (ptr, ...) @printf(ptr noundef nonnull dereferenceable(1) @.str.3, i32 noundef %54)
  br label %.thread

57:                                               ; preds = %52
  %58 = call i64 @wc_strlcpy(ptr noundef nonnull %6, ptr noundef nonnull @.str.17, i64 noundef 80) #16
  %puts26 = call i32 @puts(ptr nonnull dereferenceable(1) @str.8)
  call fastcc void @test_harness(ptr noundef %3)
  %59 = load i32, ptr %18, align 8, !tbaa !18
  %.not27 = icmp eq i32 %59, 0
  br i1 %.not27, label %62, label %60

60:                                               ; preds = %57
  %61 = call i32 (ptr, ...) @printf(ptr noundef nonnull dereferenceable(1) @.str.3, i32 noundef %59)
  br label %.thread

62:                                               ; preds = %57
  store i32 3, ptr %3, align 8, !tbaa !17
  %63 = call i64 @wc_strlcpy(ptr noundef nonnull %6, ptr noundef nonnull @.str.19, i64 noundef 80) #16
  %64 = call i64 @wc_strlcpy(ptr noundef nonnull %8, ptr noundef nonnull @.str.20, i64 noundef 80) #16
  %puts28 = call i32 @puts(ptr nonnull dereferenceable(1) @str.9)
  call fastcc void @test_harness(ptr noundef %3)
  %65 = load i32, ptr %18, align 8, !tbaa !18
  %.not29 = icmp eq i32 %65, 0
  br i1 %.not29, label %68, label %66

66:                                               ; preds = %62
  %67 = call i32 (ptr, ...) @printf(ptr noundef nonnull dereferenceable(1) @.str.3, i32 noundef %65)
  br label %.thread

68:                                               ; preds = %62
  store i32 3, ptr %3, align 8, !tbaa !17
  %69 = call i64 @wc_strlcpy(ptr noundef nonnull %6, ptr noundef nonnull @.str.22, i64 noundef 80) #16
  %70 = call i64 @wc_strlcpy(ptr noundef nonnull %8, ptr noundef nonnull @.str.23, i64 noundef 80) #16
  %puts30 = call i32 @puts(ptr nonnull dereferenceable(1) @str.10)
  call fastcc void @test_harness(ptr noundef %3)
  %71 = load i32, ptr %18, align 8, !tbaa !18
  %.not31 = icmp eq i32 %71, 0
  br i1 %.not31, label %74, label %72

72:                                               ; preds = %68
  %73 = call i32 (ptr, ...) @printf(ptr noundef nonnull dereferenceable(1) @.str.3, i32 noundef %71)
  br label %.thread

74:                                               ; preds = %19, %68
  %puts34 = call i32 @puts(ptr nonnull dereferenceable(1) @str.12)
  br label %.thread

.thread:                                          ; preds = %15, %25, %30, %35, %40, %45, %50, %55, %60, %66, %72, %21, %74
  %75 = phi i32 [ 0, %74 ], [ 1, %21 ], [ 1, %72 ], [ 1, %66 ], [ 1, %60 ], [ 1, %55 ], [ 1, %50 ], [ 1, %45 ], [ 1, %40 ], [ 1, %35 ], [ 1, %30 ], [ 1, %25 ], [ 1, %15 ]
  %puts35 = call i32 @puts(ptr nonnull dereferenceable(1) @str.13)
  %76 = load ptr, ptr @cipherSuiteCtx, align 8, !tbaa !15
  call void @wolfSSL_CTX_free(ptr noundef %76) #16
  %77 = call i32 @wolfSSL_Cleanup() #16
  call void @llvm.lifetime.end.p0(i64 24, ptr nonnull %5) #16
  call void @llvm.lifetime.end.p0(i64 240, ptr nonnull %4) #16
  call void @llvm.lifetime.end.p0(i64 40, ptr nonnull %3) #16
  ret i32 %75
}